; Function Attrs: mustprogress noreturn uwtable
define internal void @"_ZNSt17_Function_handlerIFvvEZN3nix8killUserEjE3$_0E9_M_invokeERKSt9_Any_data"(ptr nocapture noundef nonnull readonly align 8 dereferenceable(16) %0) #21 align 2 personality ptr @__gxx_personality_v0 {
  %2 = load ptr, ptr %0, align 8
  %3 = load i32, ptr %2, align 4
  %4 = tail call i32 @setuid(i32 noundef %3) #32
  %5 = icmp eq i32 %4, -1
  br i1 %5, label %6, label %.preheader.i.i.i

6:                                                ; preds = %1
  %7 = tail call ptr @__cxa_allocate_exception(i64 384) #32
  invoke void @_ZN3nix8SysErrorC2IJA12_cEEEDpRKT_(ptr noundef nonnull align 8 dereferenceable(380) %7, ptr noundef nonnull align 1 dereferenceable(12) @.str.35)
          to label %8 unwind label %9

8:                                                ; preds = %6
  tail call void @__cxa_throw(ptr nonnull %7, ptr nonnull @_ZTIN3nix8SysErrorE, ptr nonnull @_ZN3nix8SysErrorD2Ev) #36
  unreachable

9:                                                ; preds = %6
  %10 = landingpad { ptr, i32 }
          cleanup
  br label %23

.preheader.i.i.i:                                 ; preds = %1, %13
  %11 = tail call i32 @kill(i32 noundef -1, i32 noundef 9) #32
  %12 = icmp eq i32 %11, 0
  br i1 %12, label %22, label %13

13:                                               ; preds = %.preheader.i.i.i
  %14 = tail call ptr @__errno_location() #35
  %15 = load i32, ptr %14, align 4
  switch i32 %15, label %16 [
    i32 3, label %22
    i32 1, label %22
    i32 4, label %.preheader.i.i.i
  ]

16:                                               ; preds = %13
  %17 = tail call ptr @__cxa_allocate_exception(i64 384) #32
  %18 = load ptr, ptr %0, align 8
  invoke void @_ZN3nix8SysErrorC2IJA36_cjEEEDpRKT_(ptr noundef nonnull align 8 dereferenceable(380) %17, ptr noundef nonnull align 1 dereferenceable(36) @.str.36, ptr noundef nonnull align 4 dereferenceable(4) %18)
          to label %19 unwind label %20

19:                                               ; preds = %16
  tail call void @__cxa_throw(ptr nonnull %17, ptr nonnull @_ZTIN3nix8SysErrorE, ptr nonnull @_ZN3nix8SysErrorD2Ev) #36
  unreachable

20:                                               ; preds = %16
  %21 = landingpad { ptr, i32 }
          cleanup
  br label %23

22:                                               ; preds = %13, %13, %.preheader.i.i.i
  tail call void @_exit(i32 noundef 0) #36
  unreachable

23:                                               ; preds = %20, %9
  %.sink.i.i.i = phi ptr [ %17, %20 ], [ %7, %9 ]
  %.pn.i.i.i = phi { ptr, i32 } [ %21, %20 ], [ %10, %9 ]
  tail call void @__cxa_free_exception(ptr %.sink.i.i.i) #32
  resume { ptr, i32 } %.pn.i.i.i
}